target datalayout = "e-m:e-p270:32:32-p271:32:32-p272:64:64-i64:64-i128:128-f80:128-n8:16:32:64-S128"
target triple = "x86_64-pc-linux-gnu"

%"class.std::__cxx11::basic_string" = type { %"struct.std::__cxx11::basic_string<char>::_Alloc_hider", i64, %union.anon }
%"struct.std::__cxx11::basic_string<char>::_Alloc_hider" = type { ptr }
%union.anon = type { i64, [8 x i8] }
%class.cmStateDirectory = type { %"class.cmLinkedTree<cmStateDetail::BuildsystemDirectoryStateType>::iterator", %class.cmStateSnapshot }
%"class.cmLinkedTree<cmStateDetail::BuildsystemDirectoryStateType>::iterator" = type { ptr, i64 }
%class.cmStateSnapshot = type { ptr, %"class.cmLinkedTree<cmStateDetail::SnapshotDataType>::iterator" }
%"class.cmLinkedTree<cmStateDetail::SnapshotDataType>::iterator" = type { ptr, i64 }
%"struct.cmStateDetail::BuildsystemDirectoryStateType" = type { %"class.cmLinkedTree<cmStateDetail::SnapshotDataType>::iterator", %"class.std::__cxx11::basic_string", %"class.std::__cxx11::basic_string", %"class.std::vector", %"class.std::vector", %"class.std::vector", %"class.std::vector", %"class.std::vector", %"class.std::vector.3", %"class.std::vector.3", %"class.std::__cxx11::basic_string", %class.cmPropertyMap, %"class.std::vector.13" }
%"class.std::vector" = type { %"struct.std::_Vector_base" }
%"struct.std::_Vector_base" = type { %"struct.std::_Vector_base<BT<std::__cxx11::basic_string<char>>, std::allocator<BT<std::__cxx11::basic_string<char>>>>::_Vector_impl" }
%"struct.std::_Vector_base<BT<std::__cxx11::basic_string<char>>, std::allocator<BT<std::__cxx11::basic_string<char>>>>::_Vector_impl" = type { %"struct.std::_Vector_base<BT<std::__cxx11::basic_string<char>>, std::allocator<BT<std::__cxx11::basic_string<char>>>>::_Vector_impl_data" }
%"struct.std::_Vector_base<BT<std::__cxx11::basic_string<char>>, std::allocator<BT<std::__cxx11::basic_string<char>>>>::_Vector_impl_data" = type { ptr, ptr, ptr }
%"class.std::vector.3" = type { %"struct.std::_Vector_base.4" }
%"struct.std::_Vector_base.4" = type { %"struct.std::_Vector_base<std::__cxx11::basic_string<char>, std::allocator<std::__cxx11::basic_string<char>>>::_Vector_impl" }
%"struct.std::_Vector_base<std::__cxx11::basic_string<char>, std::allocator<std::__cxx11::basic_string<char>>>::_Vector_impl" = type { %"struct.std::_Vector_base<std::__cxx11::basic_string<char>, std::allocator<std::__cxx11::basic_string<char>>>::_Vector_impl_data" }
%"struct.std::_Vector_base<std::__cxx11::basic_string<char>, std::allocator<std::__cxx11::basic_string<char>>>::_Vector_impl_data" = type { ptr, ptr, ptr }
%class.cmPropertyMap = type { %"class.std::unordered_map" }
%"class.std::unordered_map" = type { %"class.std::_Hashtable" }
%"class.std::_Hashtable" = type { ptr, i64, %"struct.std::__detail::_Hash_node_base", i64, %"struct.std::__detail::_Prime_rehash_policy", ptr }
%"struct.std::__detail::_Hash_node_base" = type { ptr }
%"struct.std::__detail::_Prime_rehash_policy" = type { float, i64 }
%"class.std::vector.13" = type { %"struct.std::_Vector_base.14" }
%"struct.std::_Vector_base.14" = type { %"struct.std::_Vector_base<cmStateSnapshot, std::allocator<cmStateSnapshot>>::_Vector_impl" }
%"struct.std::_Vector_base<cmStateSnapshot, std::allocator<cmStateSnapshot>>::_Vector_impl" = type { %"struct.std::_Vector_base<cmStateSnapshot, std::allocator<cmStateSnapshot>>::_Vector_impl_data" }
%"struct.std::_Vector_base<cmStateSnapshot, std::allocator<cmStateSnapshot>>::_Vector_impl_data" = type { ptr, ptr, ptr }
%"struct.cmStateDetail::SnapshotDataType" = type { %"class.cmLinkedTree<cmStateDetail::SnapshotDataType>::iterator", %"class.cmLinkedTree<cmStateDetail::SnapshotDataType>::iterator", %"class.cmLinkedTree<cmStateDetail::PolicyStackEntry>::iterator", %"class.cmLinkedTree<cmStateDetail::PolicyStackEntry>::iterator", %"class.cmLinkedTree<cmStateDetail::PolicyStackEntry>::iterator", i32, i8, %"class.cmLinkedTree<std::__cxx11::basic_string<char>>::iterator", %"class.cmLinkedTree<cmStateDetail::BuildsystemDirectoryStateType>::iterator", %"class.cmLinkedTree<cmDefinitions>::iterator", %"class.cmLinkedTree<cmDefinitions>::iterator", %"class.cmLinkedTree<cmDefinitions>::iterator", i64, i64, i64, i64, i64 }
%"class.cmLinkedTree<cmStateDetail::PolicyStackEntry>::iterator" = type { ptr, i64 }
%"class.cmLinkedTree<std::__cxx11::basic_string<char>>::iterator" = type { ptr, i64 }
%"class.cmLinkedTree<cmDefinitions>::iterator" = type { ptr, i64 }
%class.cmLinkedTree = type { %"class.std::vector.59", %"class.std::vector.64" }
%"class.std::vector.59" = type { %"struct.std::_Vector_base.60" }
%"struct.std::_Vector_base.60" = type { %"struct.std::_Vector_base<cmStateDetail::BuildsystemDirectoryStateType, std::allocator<cmStateDetail::BuildsystemDirectoryStateType>>::_Vector_impl" }
%"struct.std::_Vector_base<cmStateDetail::BuildsystemDirectoryStateType, std::allocator<cmStateDetail::BuildsystemDirectoryStateType>>::_Vector_impl" = type { %"struct.std::_Vector_base<cmStateDetail::BuildsystemDirectoryStateType, std::allocator<cmStateDetail::BuildsystemDirectoryStateType>>::_Vector_impl_data" }
%"struct.std::_Vector_base<cmStateDetail::BuildsystemDirectoryStateType, std::allocator<cmStateDetail::BuildsystemDirectoryStateType>>::_Vector_impl_data" = type { ptr, ptr, ptr }
%"class.std::vector.64" = type { %"struct.std::_Vector_base.65" }
%"struct.std::_Vector_base.65" = type { %"struct.std::_Vector_base<unsigned long, std::allocator<unsigned long>>::_Vector_impl" }
%"struct.std::_Vector_base<unsigned long, std::allocator<unsigned long>>::_Vector_impl" = type { %"struct.std::_Vector_base<unsigned long, std::allocator<unsigned long>>::_Vector_impl_data" }
%"struct.std::_Vector_base<unsigned long, std::allocator<unsigned long>>::_Vector_impl_data" = type { ptr, ptr, ptr }
%class.cmLinkedTree.76 = type { %"class.std::vector.77", %"class.std::vector.64" }
%"class.std::vector.77" = type { %"struct.std::_Vector_base.78" }
%"struct.std::_Vector_base.78" = type { %"struct.std::_Vector_base<cmStateDetail::SnapshotDataType, std::allocator<cmStateDetail::SnapshotDataType>>::_Vector_impl" }
%"struct.std::_Vector_base<cmStateDetail::SnapshotDataType, std::allocator<cmStateDetail::SnapshotDataType>>::_Vector_impl" = type { %"struct.std::_Vector_base<cmStateDetail::SnapshotDataType, std::allocator<cmStateDetail::SnapshotDataType>>::_Vector_impl_data" }
%"struct.std::_Vector_base<cmStateDetail::SnapshotDataType, std::allocator<cmStateDetail::SnapshotDataType>>::_Vector_impl_data" = type { ptr, ptr, ptr }

; Function Attrs: mustprogress nounwind uwtable
define linkonce_odr dso_local noundef nonnull align 8 dereferenceable(208) ptr @_ZNSt6vectorIN13cmStateDetail16SnapshotDataTypeESaIS1_EEixEm(ptr noundef nonnull align 8 dereferenceable(24) %0, i64 noundef %1) #6 comdat align 2 {
  %3 = alloca ptr, align 8
  %4 = alloca i64, align 8
  store ptr %0, ptr %3, align 8, !tbaa !202
  store i64 %1, ptr %4, align 8, !tbaa !17
  %5 = load ptr, ptr %3, align 8
  %6 = getelementptr inbounds nuw %"struct.std::_Vector_base.78", ptr %5, i32 0, i32 0
  %7 = getelementptr inbounds nuw %"struct.std::_Vector_base<cmStateDetail::SnapshotDataType, std::allocator<cmStateDetail::SnapshotDataType>>::_Vector_impl_data", ptr %6, i32 0, i32 0
  %8 = load ptr, ptr %7, align 8, !tbaa !204
  %9 = load i64, ptr %4, align 8, !tbaa !17
  %10 = getelementptr inbounds nuw %"struct.cmStateDetail::SnapshotDataType", ptr %8, i64 %9
  ret ptr %10
}

; Function Attrs: mustprogress nounwind uwtable
define linkonce_odr dso_local noundef nonnull align 8 dereferenceable(360) ptr @_ZNSt6vectorIN13cmStateDetail29BuildsystemDirectoryStateTypeESaIS1_EEixEm(ptr noundef nonnull align 8 dereferenceable(24) %0, i64 noundef %1) #6 comdat align 2 {
  %3 = alloca ptr, align 8
  %4 = alloca i64, align 8
  store ptr %0, ptr %3, align 8, !tbaa !197
  store i64 %1, ptr %4, align 8, !tbaa !17
  %5 = load ptr, ptr %3, align 8
  %6 = getelementptr inbounds nuw %"struct.std::_Vector_base.60", ptr %5, i32 0, i32 0
  %7 = getelementptr inbounds nuw %"struct.std::_Vector_base<cmStateDetail::BuildsystemDirectoryStateType, std::allocator<cmStateDetail::BuildsystemDirectoryStateType>>::_Vector_impl_data", ptr %6, i32 0, i32 0
  %8 = load ptr, ptr %7, align 8, !tbaa !199
  %9 = load i64, ptr %4, align 8, !tbaa !17
  %10 = getelementptr inbounds nuw %"struct.cmStateDetail::BuildsystemDirectoryStateType", ptr %8, i64 %9
  ret ptr %10
}

; Function Attrs: mustprogress nounwind uwtable
define linkonce_odr dso_local noundef i64 @_ZNKSt6vectorI2BTINSt7__cxx1112basic_stringIcSt11char_traitsIcESaIcEEEESaIS7_EE4sizeEv(ptr noundef nonnull align 8 dereferenceable(24) %0) #6 comdat align 2 {
  %2 = alloca ptr, align 8
  store ptr %0, ptr %2, align 8, !tbaa !52
  %3 = load ptr, ptr %2, align 8
  %4 = getelementptr inbounds nuw %"struct.std::_Vector_base", ptr %3, i32 0, i32 0
  %5 = getelementptr inbounds nuw %"struct.std::_Vector_base<BT<std::__cxx11::basic_string<char>>, std::allocator<BT<std::__cxx11::basic_string<char>>>>::_Vector_impl_data", ptr %4, i32 0, i32 1
  %6 = load ptr, ptr %5, align 8, !tbaa !69
  %7 = getelementptr inbounds nuw %"struct.std::_Vector_base", ptr %3, i32 0, i32 0
  %8 = getelementptr inbounds nuw %"struct.std::_Vector_base<BT<std::__cxx11::basic_string<char>>, std::allocator<BT<std::__cxx11::basic_string<char>>>>::_Vector_impl_data", ptr %7, i32 0, i32 0
  %9 = load ptr, ptr %8, align 8, !tbaa !72
  %10 = ptrtoint ptr %6 to i64
  %11 = ptrtoint ptr %9 to i64
  %12 = sub i64 %10, %11
  %13 = sdiv exact i64 %12, 48
  ret i64 %13
}

; Function Attrs: mustprogress nounwind uwtable
define linkonce_odr dso_local noundef ptr @_ZN12cmLinkedTreeIN13cmStateDetail16SnapshotDataTypeEE10GetPointerEm(ptr noundef nonnull align 8 dereferenceable(48) %0, i64 noundef %1) #6 comdat align 2 {
  %3 = alloca ptr, align 8
  %4 = alloca i64, align 8
  store ptr %0, ptr %3, align 8, !tbaa !39
  store i64 %1, ptr %4, align 8, !tbaa !17
  %5 = load ptr, ptr %3, align 8
  %6 = getelementptr inbounds nuw %class.cmLinkedTree.76, ptr %5, i32 0, i32 0
  %7 = load i64, ptr %4, align 8, !tbaa !17
  %8 = call noundef nonnull align 8 dereferenceable(208) ptr @_ZNSt6vectorIN13cmStateDetail16SnapshotDataTypeESaIS1_EEixEm(ptr noundef nonnull align 8 dereferenceable(24) %6, i64 noundef %7) #3
  ret ptr %8
}

; Function Attrs: mustprogress nounwind uwtable
define linkonce_odr dso_local noundef ptr @_ZN12cmLinkedTreeIN13cmStateDetail29BuildsystemDirectoryStateTypeEE10GetPointerEm(ptr noundef nonnull align 8 dereferenceable(48) %0, i64 noundef %1) #6 comdat align 2 {
  %3 = alloca ptr, align 8
  %4 = alloca i64, align 8
  store ptr %0, ptr %3, align 8, !tbaa !35
  store i64 %1, ptr %4, align 8, !tbaa !17
  %5 = load ptr, ptr %3, align 8
  %6 = getelementptr inbounds nuw %class.cmLinkedTree, ptr %5, i32 0, i32 0
  %7 = load i64, ptr %4, align 8, !tbaa !17
  %8 = call noundef nonnull align 8 dereferenceable(360) ptr @_ZNSt6vectorIN13cmStateDetail29BuildsystemDirectoryStateTypeESaIS1_EEixEm(ptr noundef nonnull align 8 dereferenceable(24) %6, i64 noundef %7) #3
  ret ptr %8
}

; Function Attrs: mustprogress uwtable
define linkonce_odr dso_local void @_Z12ClearContentISt6vectorI2BTINSt7__cxx1112basic_stringIcSt11char_traitsIcESaIcEEEESaIS8_EEmEvRT_RT0_(ptr noundef nonnull align 8 dereferenceable(24) %0, ptr noundef nonnull align 8 dereferenceable(8) %1) #5 comdat {
  %3 = alloca ptr, align 8
  %4 = alloca ptr, align 8
  store ptr %0, ptr %3, align 8, !tbaa !52
  store ptr %1, ptr %4, align 8, !tbaa !61
  %5 = load ptr, ptr %3, align 8, !tbaa !52
  %6 = load ptr, ptr %3, align 8, !tbaa !52
  %7 = call noundef i64 @_ZNKSt6vectorI2BTINSt7__cxx1112basic_stringIcSt11char_traitsIcESaIcEEEESaIS7_EE4sizeEv(ptr noundef nonnull align 8 dereferenceable(24) %6) #3
  %8 = add i64 %7, 1
  call void @_ZNSt6vectorI2BTINSt7__cxx1112basic_stringIcSt11char_traitsIcESaIcEEEESaIS7_EE6resizeEm(ptr noundef nonnull align 8 dereferenceable(24) %5, i64 noundef %8)
  %9 = load ptr, ptr %3, align 8, !tbaa !52
  %10 = call noundef i64 @_ZNKSt6vectorI2BTINSt7__cxx1112basic_stringIcSt11char_traitsIcESaIcEEEESaIS7_EE4sizeEv(ptr noundef nonnull align 8 dereferenceable(24) %9) #3
  %11 = load ptr, ptr %4, align 8, !tbaa !61
  store i64 %10, ptr %11, align 8, !tbaa !17
  ret void
}

; Function Attrs: mustprogress nounwind uwtable
define linkonce_odr dso_local noundef ptr @_ZN12cmLinkedTreeIN13cmStateDetail16SnapshotDataTypeEE8iteratorptEv(ptr noundef nonnull align 8 dereferenceable(16) %0) #6 comdat align 2 {
  %2 = alloca ptr, align 8
  store ptr %0, ptr %2, align 8, !tbaa !57
  %3 = load ptr, ptr %2, align 8
  %4 = getelementptr inbounds nuw %"class.cmLinkedTree<cmStateDetail::SnapshotDataType>::iterator", ptr %3, i32 0, i32 0
  %5 = load ptr, ptr %4, align 8, !tbaa !59
  %6 = getelementptr inbounds nuw %"class.cmLinkedTree<cmStateDetail::SnapshotDataType>::iterator", ptr %3, i32 0, i32 1
  %7 = load i64, ptr %6, align 8, !tbaa !60
  %8 = sub i64 %7, 1
  %9 = call noundef ptr @_ZN12cmLinkedTreeIN13cmStateDetail16SnapshotDataTypeEE10GetPointerEm(ptr noundef nonnull align 8 dereferenceable(48) %5, i64 noundef %8)
  ret ptr %9
}

; Function Attrs: mustprogress nounwind uwtable
define linkonce_odr dso_local noundef ptr @_ZN12cmLinkedTreeIN13cmStateDetail29BuildsystemDirectoryStateTypeEE8iteratorptEv(ptr noundef nonnull align 8 dereferenceable(16) %0) #6 comdat align 2 {
  %2 = alloca ptr, align 8
  store ptr %0, ptr %2, align 8, !tbaa !26
  %3 = load ptr, ptr %2, align 8
  %4 = getelementptr inbounds nuw %"class.cmLinkedTree<cmStateDetail::BuildsystemDirectoryStateType>::iterator", ptr %3, i32 0, i32 0
  %5 = load ptr, ptr %4, align 8, !tbaa !28
  %6 = getelementptr inbounds nuw %"class.cmLinkedTree<cmStateDetail::BuildsystemDirectoryStateType>::iterator", ptr %3, i32 0, i32 1
  %7 = load i64, ptr %6, align 8, !tbaa !31
  %8 = sub i64 %7, 1
  %9 = call noundef ptr @_ZN12cmLinkedTreeIN13cmStateDetail29BuildsystemDirectoryStateTypeEE10GetPointerEm(ptr noundef nonnull align 8 dereferenceable(48) %5, i64 noundef %8)
  ret ptr %9
}

; Function Attrs: mustprogress uwtable
define dso_local void @_ZN16cmStateDirectory23ClearCompileDefinitionsEv(ptr noundef nonnull align 8 dereferenceable(40) %0) #5 align 2 {
  %2 = alloca ptr, align 8
  store ptr %0, ptr %2, align 8, !tbaa !24
  %3 = load ptr, ptr %2, align 8
  %4 = getelementptr inbounds nuw %class.cmStateDirectory, ptr %3, i32 0, i32 0
  %5 = call noundef ptr @_ZN12cmLinkedTreeIN13cmStateDetail29BuildsystemDirectoryStateTypeEE8iteratorptEv(ptr noundef nonnull align 8 dereferenceable(16) %4)
  %6 = getelementptr inbounds nuw %"struct.cmStateDetail::BuildsystemDirectoryStateType", ptr %5, i32 0, i32 4
  %7 = getelementptr inbounds nuw %class.cmStateDirectory, ptr %3, i32 0, i32 1
  %8 = getelementptr inbounds nuw %class.cmStateSnapshot, ptr %7, i32 0, i32 1
  %9 = call noundef ptr @_ZN12cmLinkedTreeIN13cmStateDetail16SnapshotDataTypeEE8iteratorptEv(ptr noundef nonnull align 8 dereferenceable(16) %8)
  %10 = getelementptr inbounds nuw %"struct.cmStateDetail::SnapshotDataType", ptr %9, i32 0, i32 13
  call void @_Z12ClearContentISt6vectorI2BTINSt7__cxx1112basic_stringIcSt11char_traitsIcESaIcEEEESaIS8_EEmEvRT_RT0_(ptr noundef nonnull align 8 dereferenceable(24) %6, ptr noundef nonnull align 8 dereferenceable(8) %10)
  ret void
}